target datalayout = "e-m:e-p270:32:32-p271:32:32-p272:64:64-i64:64-i128:128-f80:128-n8:16:32:64-S128"
target triple = "x86_64-pc-linux-gnu"

%struct.ssl_ctx_st = type { ptr, %union.crypto_mutex_st, i16, i16, ptr, ptr, ptr, ptr, ptr, ptr, i64, ptr, ptr, i32, i32, i64, ptr, ptr, ptr, i32, ptr, ptr, ptr, ptr, ptr, ptr, %struct.crypto_ex_data_st, ptr, ptr, ptr, ptr, i32, i32, i32, ptr, ptr, ptr, i32, i32, [32 x i8], ptr, ptr, ptr, ptr, i16, ptr, ptr, [16 x i8], [16 x i8], [16 x i8], ptr, ptr, ptr, ptr, i8, ptr, ptr, ptr, ptr, ptr, ptr, ptr, i32, ptr, i64, ptr, ptr, ptr, i64, ptr, i64, ptr, ptr, i8, ptr, i32 }
%union.crypto_mutex_st = type { double, [48 x i8] }
%struct.crypto_ex_data_st = type { ptr }

@.str = private unnamed_addr constant [117 x i8] c"generated/home/dtcxzyw/WorkSpace/Projects/compilers/llvm-opt-benchmark/bench/libquic/libquic/boringssl/ssl/ssl_lib.c\00", align 1

; Function Attrs: nounwind uwtable
define hidden i32 @SSL_CTX_set_cipher_list(ptr noundef %0, ptr noundef %1) #0 {
  %3 = alloca i32, align 4
  %4 = alloca ptr, align 8
  %5 = alloca ptr, align 8
  %6 = alloca ptr, align 8
  %7 = alloca i32, align 4
  store ptr %0, ptr %4, align 8, !tbaa !11
  store ptr %1, ptr %5, align 8, !tbaa !55
  call void @llvm.lifetime.start.p0(i64 8, ptr %6) #8
  %8 = load ptr, ptr %4, align 8, !tbaa !11
  %9 = getelementptr inbounds nuw %struct.ssl_ctx_st, ptr %8, i32 0, i32 0
  %10 = load ptr, ptr %9, align 8, !tbaa !17
  %11 = load ptr, ptr %4, align 8, !tbaa !11
  %12 = getelementptr inbounds nuw %struct.ssl_ctx_st, ptr %11, i32 0, i32 4
  %13 = load ptr, ptr %4, align 8, !tbaa !11
  %14 = getelementptr inbounds nuw %struct.ssl_ctx_st, ptr %13, i32 0, i32 5
  %15 = load ptr, ptr %5, align 8, !tbaa !55
  %16 = call ptr @ssl_create_cipher_list(ptr noundef %10, ptr noundef %12, ptr noundef %14, ptr noundef %15)
  store ptr %16, ptr %6, align 8, !tbaa !201
  %17 = load ptr, ptr %6, align 8, !tbaa !201
  %18 = icmp eq ptr %17, null
  br i1 %18, label %19, label %20

19:                                               ; preds = %2
  store i32 0, ptr %3, align 4
  store i32 1, ptr %7, align 4
  br label %26

20:                                               ; preds = %2
  %21 = load ptr, ptr %6, align 8, !tbaa !201
  %22 = call i64 @sk_num(ptr noundef %21)
  %23 = icmp eq i64 %22, 0
  br i1 %23, label %24, label %25

24:                                               ; preds = %20
  call void @ERR_put_error(i32 noundef 16, i32 noundef 0, i32 noundef 177, ptr noundef @.str, i32 noundef 1351)
  store i32 0, ptr %3, align 4
  store i32 1, ptr %7, align 4
  br label %26

25:                                               ; preds = %20
  store i32 1, ptr %3, align 4
  store i32 1, ptr %7, align 4
  br label %26

26:                                               ; preds = %25, %24, %19
  call void @llvm.lifetime.end.p0(i64 8, ptr %6) #8
  %27 = load i32, ptr %3, align 4
  ret i32 %27
}