; Function Attrs: nounwind uwtable
define hidden range(i32 0, 2) i32 @SSL_CTX_set_cipher_list(ptr noundef %0, ptr noundef %1) local_unnamed_addr #0 {
  %3 = load ptr, ptr %0, align 8, !tbaa !13
  %4 = getelementptr inbounds nuw i8, ptr %0, i64 72
  %5 = getelementptr inbounds nuw i8, ptr %0, i64 80
  %6 = tail call ptr @ssl_create_cipher_list(ptr noundef %3, ptr noundef nonnull %4, ptr noundef nonnull %5, ptr noundef %1) #21
  %7 = icmp eq ptr %6, null
  br i1 %7, label %12, label %8

8:                                                ; preds = %2
  %9 = tail call i64 @sk_num(ptr noundef nonnull %6) #21
  %10 = icmp eq i64 %9, 0
  br i1 %10, label %11, label %12

11:                                               ; preds = %8
  tail call void @ERR_put_error(i32 noundef 16, i32 noundef 0, i32 noundef 177, ptr noundef nonnull @.str, i32 noundef 1351) #21
  br label %12

12:                                               ; preds = %8, %2, %11
  %.0 = phi i32 [ 0, %11 ], [ 0, %2 ], [ 1, %8 ]
  ret i32 %.0
}